; Function Attrs: nounwind uwtable
define void @Abc_DfsLevelizedTfo_rec(ptr noundef %0, ptr noundef captures(none) %1) local_unnamed_addr #0 {
  %3 = tail call fastcc i32 @Abc_NodeIsTravIdCurrent(ptr noundef %0)
  %.not = icmp eq i32 %3, 0
  br i1 %.not, label %4, label %.critedge

4:                                                ; preds = %2
  %.val = load ptr, ptr %0, align 8, !tbaa !3
  %5 = getelementptr i8, ptr %0, i64 16
  %.val13 = load i32, ptr %5, align 8, !tbaa !13
  %6 = getelementptr inbounds nuw i8, ptr %.val, i64 216
  %7 = load i32, ptr %6, align 8, !tbaa !14
  %8 = getelementptr inbounds nuw i8, ptr %.val, i64 224
  %9 = add nsw i32 %.val13, 1
  %10 = getelementptr inbounds nuw i8, ptr %.val, i64 228
  %11 = load i32, ptr %10, align 4, !tbaa !28
  %.not.i.not.i.i.i = icmp slt i32 %.val13, %11
  br i1 %.not.i.not.i.i.i, label %Abc_NodeSetTravIdCurrent.exit, label %12

12:                                               ; preds = %4
  %13 = load i32, ptr %8, align 8, !tbaa !29
  %14 = shl nsw i32 %13, 1
  %.not.i.i.i = icmp slt i32 %.val13, %14
  %.not.i.i.not.i.i.i = icmp sgt i32 %13, %.val13
  br i1 %.not.i.i.i, label %27, label %15

15:                                               ; preds = %12
  br i1 %.not.i.i.not.i.i.i, label %Vec_IntGrow.exit.i.i.i.i, label %16

16:                                               ; preds = %15
  %17 = getelementptr inbounds nuw i8, ptr %.val, i64 232
  %18 = load ptr, ptr %17, align 8, !tbaa !30
  %.not9.i.i.i.i.i = icmp eq ptr %18, null
  %19 = sext i32 %9 to i64
  %20 = shl nsw i64 %19, 2
  br i1 %.not9.i.i.i.i.i, label %23, label %21

21:                                               ; preds = %16
  %22 = tail call ptr @realloc(ptr noundef nonnull %18, i64 noundef %20) #21
  br label %25

23:                                               ; preds = %16
  %24 = tail call noalias ptr @malloc(i64 noundef %20) #22
  br label %25

25:                                               ; preds = %23, %21
  %26 = phi ptr [ %22, %21 ], [ %24, %23 ]
  store ptr %26, ptr %17, align 8, !tbaa !30
  br label %Vec_IntGrow.exit.sink.split.i.i.i.i

27:                                               ; preds = %12
  br i1 %.not.i.i.not.i.i.i, label %Vec_IntGrow.exit.i.i.i.i, label %28

28:                                               ; preds = %27
  %29 = getelementptr inbounds nuw i8, ptr %.val, i64 232
  %30 = load ptr, ptr %29, align 8, !tbaa !30
  %.not9.i21.i.i.i.i = icmp eq ptr %30, null
  %31 = sext i32 %14 to i64
  %32 = shl nsw i64 %31, 2
  br i1 %.not9.i21.i.i.i.i, label %35, label %33

33:                                               ; preds = %28
  %34 = tail call ptr @realloc(ptr noundef nonnull %30, i64 noundef %32) #21
  br label %37

35:                                               ; preds = %28
  %36 = tail call noalias ptr @malloc(i64 noundef %32) #22
  br label %37

37:                                               ; preds = %35, %33
  %38 = phi ptr [ %34, %33 ], [ %36, %35 ]
  store ptr %38, ptr %29, align 8, !tbaa !30
  br label %Vec_IntGrow.exit.sink.split.i.i.i.i

Vec_IntGrow.exit.sink.split.i.i.i.i:              ; preds = %37, %25
  %.sink.i.i.i.i = phi i32 [ %14, %37 ], [ %9, %25 ]
  store i32 %.sink.i.i.i.i, ptr %8, align 8, !tbaa !29
  %.pre.i.i.i = load i32, ptr %10, align 4, !tbaa !28
  br label %Vec_IntGrow.exit.i.i.i.i

Vec_IntGrow.exit.i.i.i.i:                         ; preds = %Vec_IntGrow.exit.sink.split.i.i.i.i, %27, %15
  %39 = phi i32 [ %.pre.i.i.i, %Vec_IntGrow.exit.sink.split.i.i.i.i ], [ %11, %27 ], [ %11, %15 ]
  %.not4.i.i.i = icmp sgt i32 %39, %.val13
  br i1 %.not4.i.i.i, label %._crit_edge.i.i.i.i, label %.lr.ph.i.i.i.i

.lr.ph.i.i.i.i:                                   ; preds = %Vec_IntGrow.exit.i.i.i.i
  %40 = getelementptr inbounds nuw i8, ptr %.val, i64 232
  %41 = load ptr, ptr %40, align 8, !tbaa !30
  %42 = sext i32 %39 to i64
  %43 = shl nsw i64 %42, 2
  %scevgep.i.i.i.i = getelementptr i8, ptr %41, i64 %43
  %44 = sub i32 %.val13, %39
  %45 = zext i32 %44 to i64
  %46 = shl nuw nsw i64 %45, 2
  %47 = add nuw nsw i64 %46, 4
  tail call void @llvm.memset.p0.i64(ptr noundef nonnull align 4 dereferenceable(1) %scevgep.i.i.i.i, i8 0, i64 %47, i1 false), !tbaa !31
  br label %._crit_edge.i.i.i.i

._crit_edge.i.i.i.i:                              ; preds = %.lr.ph.i.i.i.i, %Vec_IntGrow.exit.i.i.i.i
  store i32 %9, ptr %10, align 4, !tbaa !28
  br label %Abc_NodeSetTravIdCurrent.exit

Abc_NodeSetTravIdCurrent.exit:                    ; preds = %4, %._crit_edge.i.i.i.i
  %48 = getelementptr i8, ptr %.val, i64 232
  %.val.i.i.i = load ptr, ptr %48, align 8, !tbaa !30
  %49 = sext i32 %.val13 to i64
  %50 = getelementptr inbounds i32, ptr %.val.i.i.i, i64 %49
  store i32 %7, ptr %50, align 4, !tbaa !31
  %51 = getelementptr i8, ptr %0, i64 20
  %.val14 = load i32, ptr %51, align 4
  %52 = and i32 %.val14, 15
  %53 = add nsw i32 %52, -5
  %narrow.i = icmp ult i32 %53, -2
  br i1 %narrow.i, label %54, label %.critedge

54:                                               ; preds = %Abc_NodeSetTravIdCurrent.exit
  %55 = lshr i32 %.val14, 12
  tail call fastcc void @Vec_VecPush(ptr noundef %1, i32 noundef %55, ptr noundef nonnull %0)
  %56 = getelementptr i8, ptr %0, i64 44
  %.val1518 = load i32, ptr %56, align 4, !tbaa !55
  %57 = icmp sgt i32 %.val1518, 0
  br i1 %57, label %.lr.ph, label %.critedge

.lr.ph:                                           ; preds = %54
  %58 = getelementptr i8, ptr %0, i64 48
  br label %59

59:                                               ; preds = %.lr.ph, %59
  %indvars.iv = phi i64 [ 0, %.lr.ph ], [ %indvars.iv.next, %59 ]
  %.val16 = load ptr, ptr %0, align 8, !tbaa !3
  %.val17 = load ptr, ptr %58, align 8, !tbaa !54
  %60 = getelementptr i8, ptr %.val16, i64 32
  %.val16.val = load ptr, ptr %60, align 8, !tbaa !35
  %61 = getelementptr i8, ptr %.val16.val, i64 8
  %.val16.val.val = load ptr, ptr %61, align 8, !tbaa !36
  %62 = getelementptr inbounds nuw i32, ptr %.val17, i64 %indvars.iv
  %63 = load i32, ptr %62, align 4, !tbaa !31
  %64 = sext i32 %63 to i64
  %65 = getelementptr inbounds ptr, ptr %.val16.val.val, i64 %64
  %66 = load ptr, ptr %65, align 8, !tbaa !38
  tail call void @Abc_DfsLevelizedTfo_rec(ptr noundef %66, ptr noundef %1)
  %indvars.iv.next = add nuw nsw i64 %indvars.iv, 1
  %.val15 = load i32, ptr %56, align 4, !tbaa !55
  %67 = sext i32 %.val15 to i64
  %68 = icmp slt i64 %indvars.iv.next, %67
  br i1 %68, label %59, label %.critedge, !llvm.loop !148

.critedge:                                        ; preds = %59, %54, %Abc_NodeSetTravIdCurrent.exit, %2
  ret void
}